; ModuleID = 'source-C-CXX/41/935.cpp'
source_filename = "source-C-CXX/41/935.cpp"
target datalayout = "e-m:e-p270:32:32-p271:32:32-p272:64:64-i64:64-f80:128-n8:16:32:64-S128"
target triple = "x86_64-pc-linux-gnu"

%"class.std::ios_base::Init" = type { i8 }
%"class.std::basic_istream" = type { i32 (...)**, i64, %"class.std::basic_ios" }
%"class.std::basic_ios" = type { %"class.std::ios_base", %"class.std::basic_ostream"*, i8, i8, %"class.std::basic_streambuf"*, %"class.std::ctype"*, %"class.std::num_put"*, %"class.std::num_get"* }
%"class.std::ios_base" = type { i32 (...)**, i64, i64, i32, i32, i32, %"struct.std::ios_base::_Callback_list"*, %"struct.std::ios_base::_Words", [8 x %"struct.std::ios_base::_Words"], i32, %"struct.std::ios_base::_Words"*, %"class.std::locale" }
%"struct.std::ios_base::_Callback_list" = type { %"struct.std::ios_base::_Callback_list"*, void (i32, %"class.std::ios_base"*, i32)*, i32, i32 }
%"struct.std::ios_base::_Words" = type { i8*, i64 }
%"class.std::locale" = type { %"class.std::locale::_Impl"* }
%"class.std::locale::_Impl" = type { i32, %"class.std::locale::facet"**, i64, %"class.std::locale::facet"**, i8** }
%"class.std::locale::facet" = type <{ i32 (...)**, i32, [4 x i8] }>
%"class.std::basic_ostream" = type { i32 (...)**, %"class.std::basic_ios" }
%"class.std::basic_streambuf" = type { i32 (...)**, i8*, i8*, i8*, i8*, i8*, i8*, %"class.std::locale" }
%"class.std::ctype" = type <{ %"class.std::locale::facet.base", [4 x i8], %struct.__locale_struct*, i8, [7 x i8], i32*, i32*, i16*, i8, [256 x i8], [256 x i8], i8, [6 x i8] }>
%"class.std::locale::facet.base" = type <{ i32 (...)**, i32 }>
%struct.__locale_struct = type { [13 x %struct.__locale_data*], i16*, i32*, i32*, [13 x i8*] }
%struct.__locale_data = type opaque
%"class.std::num_put" = type { %"class.std::locale::facet.base", [4 x i8] }
%"class.std::num_get" = type { %"class.std::locale::facet.base", [4 x i8] }

@_ZStL8__ioinit = internal global %"class.std::ios_base::Init" zeroinitializer, align 1
@__dso_handle = external hidden global i8
@_ZSt3cin = external global %"class.std::basic_istream", align 8
@_ZSt4cout = external global %"class.std::basic_ostream", align 8
@llvm.global_ctors = appending global [1 x { i32, void ()*, i8* }] [{ i32, void ()*, i8* } { i32 65535, void ()* @_GLOBAL__sub_I_935.cpp, i8* null }]

declare void @_ZNSt8ios_base4InitC1Ev(%"class.std::ios_base::Init"* nonnull align 1 dereferenceable(1)) unnamed_addr #0

; Function Attrs: nounwind
declare void @_ZNSt8ios_base4InitD1Ev(%"class.std::ios_base::Init"* nonnull align 1 dereferenceable(1)) unnamed_addr #1

; Function Attrs: nofree nounwind
declare i32 @__cxa_atexit(void (i8*)*, i8*, i8*) local_unnamed_addr #2

; Function Attrs: mustprogress norecurse sspstrong uwtable
define dso_local i32 @main() local_unnamed_addr #3 {
  %1 = alloca i8, align 1
  %2 = alloca i32, align 4
  %3 = alloca i32, align 4
  %4 = alloca [100001 x i32], align 16
  %5 = bitcast i32* %2 to i8*
  call void @llvm.lifetime.start.p0i8(i64 4, i8* nonnull %5) #6
  %6 = bitcast i32* %3 to i8*
  call void @llvm.lifetime.start.p0i8(i64 4, i8* nonnull %6) #6
  %7 = call nonnull align 8 dereferenceable(16) %"class.std::basic_istream"* @_ZNSirsERi(%"class.std::basic_istream"* nonnull align 8 dereferenceable(16) @_ZSt3cin, i32* nonnull align 4 dereferenceable(4) %2)
  %8 = bitcast [100001 x i32]* %4 to i8*
  call void @llvm.lifetime.start.p0i8(i64 400004, i8* nonnull %8) #6
  %9 = load i32, i32* %2, align 4, !tbaa !5
  %10 = icmp sgt i32 %9, 0
  br i1 %10, label %11, label %19

11:                                               ; preds = %0, %11
  %12 = phi i64 [ %15, %11 ], [ 0, %0 ]
  %13 = getelementptr inbounds [100001 x i32], [100001 x i32]* %4, i64 0, i64 %12
  %14 = call nonnull align 8 dereferenceable(16) %"class.std::basic_istream"* @_ZNSirsERi(%"class.std::basic_istream"* nonnull align 8 dereferenceable(16) @_ZSt3cin, i32* nonnull align 4 dereferenceable(4) %13)
  %15 = add nuw nsw i64 %12, 1
  %16 = load i32, i32* %2, align 4, !tbaa !5
  %17 = sext i32 %16 to i64
  %18 = icmp slt i64 %15, %17
  br i1 %18, label %11, label %19, !llvm.loop !9

19:                                               ; preds = %11, %0
  %20 = call nonnull align 8 dereferenceable(16) %"class.std::basic_istream"* @_ZNSirsERi(%"class.std::basic_istream"* nonnull align 8 dereferenceable(16) @_ZSt3cin, i32* nonnull align 4 dereferenceable(4) %3)
  %21 = load i32, i32* %3, align 4
  %22 = load i32, i32* %2, align 4, !tbaa !5
  %23 = icmp sgt i32 %22, 0
  br i1 %23, label %24, label %146

24:                                               ; preds = %19, %128
  %25 = phi i32 [ %130, %128 ], [ %22, %19 ]
  %26 = phi i64 [ %131, %128 ], [ 0, %19 ]
  %27 = getelementptr inbounds [100001 x i32], [100001 x i32]* %4, i64 0, i64 %26
  %28 = load i32, i32* %27, align 4, !tbaa !5
  %29 = icmp eq i32 %28, %21
  %30 = sext i32 %25 to i64
  %31 = icmp slt i64 %26, %30
  %32 = select i1 %29, i1 %31, i1 false
  br i1 %32, label %33, label %128

33:                                               ; preds = %24
  %34 = xor i64 %26, -1
  %35 = add i64 %34, %30
  br label %38

36:                                               ; preds = %128
  %37 = icmp slt i32 %130, 2
  br i1 %37, label %146, label %133

38:                                               ; preds = %33, %117
  %39 = phi i64 [ 0, %33 ], [ %123, %117 ]
  %40 = phi i64 [ %30, %33 ], [ %119, %117 ]
  %41 = sub i64 %35, %39
  %42 = add i64 %41, -8
  %43 = lshr i64 %42, 3
  %44 = add nuw nsw i64 %43, 1
  %45 = sub i64 %35, %39
  %46 = add nsw i64 %40, -2
  %47 = icmp sgt i64 %26, %46
  br i1 %47, label %117, label %48

48:                                               ; preds = %38
  %49 = icmp ult i64 %45, 8
  br i1 %49, label %106, label %50

50:                                               ; preds = %48
  %51 = and i64 %45, -8
  %52 = add i64 %26, %51
  %53 = and i64 %44, 1
  %54 = icmp ult i64 %42, 8
  br i1 %54, label %88, label %55

55:                                               ; preds = %50
  %56 = and i64 %44, 4611686018427387902
  br label %57

57:                                               ; preds = %57, %55
  %58 = phi i64 [ 0, %55 ], [ %85, %57 ]
  %59 = phi i64 [ %56, %55 ], [ %86, %57 ]
  %60 = add i64 %26, %58
  %61 = add nuw nsw i64 %60, 1
  %62 = getelementptr inbounds [100001 x i32], [100001 x i32]* %4, i64 0, i64 %61
  %63 = bitcast i32* %62 to <4 x i32>*
  %64 = load <4 x i32>, <4 x i32>* %63, align 4, !tbaa !5
  %65 = getelementptr inbounds i32, i32* %62, i64 4
  %66 = bitcast i32* %65 to <4 x i32>*
  %67 = load <4 x i32>, <4 x i32>* %66, align 4, !tbaa !5
  %68 = getelementptr inbounds [100001 x i32], [100001 x i32]* %4, i64 0, i64 %60
  %69 = bitcast i32* %68 to <4 x i32>*
  store <4 x i32> %64, <4 x i32>* %69, align 4, !tbaa !5
  %70 = getelementptr inbounds i32, i32* %68, i64 4
  %71 = bitcast i32* %70 to <4 x i32>*
  store <4 x i32> %67, <4 x i32>* %71, align 4, !tbaa !5
  %72 = or i64 %58, 8
  %73 = add i64 %26, %72
  %74 = add nuw nsw i64 %73, 1
  %75 = getelementptr inbounds [100001 x i32], [100001 x i32]* %4, i64 0, i64 %74
  %76 = bitcast i32* %75 to <4 x i32>*
  %77 = load <4 x i32>, <4 x i32>* %76, align 4, !tbaa !5
  %78 = getelementptr inbounds i32, i32* %75, i64 4
  %79 = bitcast i32* %78 to <4 x i32>*
  %80 = load <4 x i32>, <4 x i32>* %79, align 4, !tbaa !5
  %81 = getelementptr inbounds [100001 x i32], [100001 x i32]* %4, i64 0, i64 %73
  %82 = bitcast i32* %81 to <4 x i32>*
  store <4 x i32> %77, <4 x i32>* %82, align 4, !tbaa !5
  %83 = getelementptr inbounds i32, i32* %81, i64 4
  %84 = bitcast i32* %83 to <4 x i32>*
  store <4 x i32> %80, <4 x i32>* %84, align 4, !tbaa !5
  %85 = add nuw i64 %58, 16
  %86 = add i64 %59, -2
  %87 = icmp eq i64 %86, 0
  br i1 %87, label %88, label %57, !llvm.loop !11

88:                                               ; preds = %57, %50
  %89 = phi i64 [ 0, %50 ], [ %85, %57 ]
  %90 = icmp eq i64 %53, 0
  br i1 %90, label %104, label %91

91:                                               ; preds = %88
  %92 = add i64 %26, %89
  %93 = add nuw nsw i64 %92, 1
  %94 = getelementptr inbounds [100001 x i32], [100001 x i32]* %4, i64 0, i64 %93
  %95 = bitcast i32* %94 to <4 x i32>*
  %96 = load <4 x i32>, <4 x i32>* %95, align 4, !tbaa !5
  %97 = getelementptr inbounds i32, i32* %94, i64 4
  %98 = bitcast i32* %97 to <4 x i32>*
  %99 = load <4 x i32>, <4 x i32>* %98, align 4, !tbaa !5
  %100 = getelementptr inbounds [100001 x i32], [100001 x i32]* %4, i64 0, i64 %92
  %101 = bitcast i32* %100 to <4 x i32>*
  store <4 x i32> %96, <4 x i32>* %101, align 4, !tbaa !5
  %102 = getelementptr inbounds i32, i32* %100, i64 4
  %103 = bitcast i32* %102 to <4 x i32>*
  store <4 x i32> %99, <4 x i32>* %103, align 4, !tbaa !5
  br label %104

104:                                              ; preds = %88, %91
  %105 = icmp eq i64 %45, %51
  br i1 %105, label %115, label %106

106:                                              ; preds = %48, %104
  %107 = phi i64 [ %26, %48 ], [ %52, %104 ]
  br label %108

108:                                              ; preds = %106, %108
  %109 = phi i64 [ %110, %108 ], [ %107, %106 ]
  %110 = add nuw nsw i64 %109, 1
  %111 = getelementptr inbounds [100001 x i32], [100001 x i32]* %4, i64 0, i64 %110
  %112 = load i32, i32* %111, align 4, !tbaa !5
  %113 = getelementptr inbounds [100001 x i32], [100001 x i32]* %4, i64 0, i64 %109
  store i32 %112, i32* %113, align 4, !tbaa !5
  %114 = icmp slt i64 %109, %46
  br i1 %114, label %108, label %115, !llvm.loop !13

115:                                              ; preds = %108, %104
  %116 = load i32, i32* %27, align 4, !tbaa !5
  br label %117

117:                                              ; preds = %115, %38
  %118 = phi i32 [ %116, %115 ], [ %21, %38 ]
  %119 = add nsw i64 %40, -1
  %120 = icmp eq i32 %118, %21
  %121 = icmp slt i64 %26, %119
  %122 = select i1 %120, i1 %121, i1 false
  %123 = add i64 %39, 1
  br i1 %122, label %38, label %124, !llvm.loop !15

124:                                              ; preds = %117
  %125 = trunc i64 %119 to i32
  store i32 %125, i32* %2, align 4
  %126 = shl i64 %119, 32
  %127 = ashr exact i64 %126, 32
  br label %128

128:                                              ; preds = %124, %24
  %129 = phi i64 [ %127, %124 ], [ %30, %24 ]
  %130 = phi i32 [ %125, %124 ], [ %25, %24 ]
  %131 = add nuw nsw i64 %26, 1
  %132 = icmp slt i64 %131, %129
  br i1 %132, label %24, label %36, !llvm.loop !16

133:                                              ; preds = %36, %133
  %134 = phi i64 [ %139, %133 ], [ 0, %36 ]
  %135 = getelementptr inbounds [100001 x i32], [100001 x i32]* %4, i64 0, i64 %134
  %136 = load i32, i32* %135, align 4, !tbaa !5
  %137 = call nonnull align 8 dereferenceable(8) %"class.std::basic_ostream"* @_ZNSolsEi(%"class.std::basic_ostream"* nonnull align 8 dereferenceable(8) @_ZSt4cout, i32 %136)
  call void @llvm.lifetime.start.p0i8(i64 1, i8* nonnull %1)
  store i8 32, i8* %1, align 1, !tbaa !17
  %138 = call nonnull align 8 dereferenceable(8) %"class.std::basic_ostream"* @_ZSt16__ostream_insertIcSt11char_traitsIcEERSt13basic_ostreamIT_T0_ES6_PKS3_l(%"class.std::basic_ostream"* nonnull align 8 dereferenceable(8) %137, i8* nonnull %1, i64 1)
  call void @llvm.lifetime.end.p0i8(i64 1, i8* nonnull %1)
  %139 = add nuw nsw i64 %134, 1
  %140 = load i32, i32* %2, align 4, !tbaa !5
  %141 = add nsw i32 %140, -2
  %142 = sext i32 %141 to i64
  %143 = icmp slt i64 %134, %142
  br i1 %143, label %133, label %144, !llvm.loop !18

144:                                              ; preds = %133
  %145 = and i64 %139, 4294967295
  br label %146

146:                                              ; preds = %19, %144, %36
  %147 = phi i64 [ 0, %36 ], [ %145, %144 ], [ 0, %19 ]
  %148 = getelementptr inbounds [100001 x i32], [100001 x i32]* %4, i64 0, i64 %147
  %149 = load i32, i32* %148, align 4, !tbaa !5
  %150 = call nonnull align 8 dereferenceable(8) %"class.std::basic_ostream"* @_ZNSolsEi(%"class.std::basic_ostream"* nonnull align 8 dereferenceable(8) @_ZSt4cout, i32 %149)
  call void @llvm.lifetime.end.p0i8(i64 400004, i8* nonnull %8) #6
  call void @llvm.lifetime.end.p0i8(i64 4, i8* nonnull %6) #6
  call void @llvm.lifetime.end.p0i8(i64 4, i8* nonnull %5) #6
  ret i32 0
}

; Function Attrs: argmemonly mustprogress nofree nosync nounwind willreturn
declare void @llvm.lifetime.start.p0i8(i64 immarg, i8* nocapture) #4

declare nonnull align 8 dereferenceable(16) %"class.std::basic_istream"* @_ZNSirsERi(%"class.std::basic_istream"* nonnull align 8 dereferenceable(16), i32* nonnull align 4 dereferenceable(4)) local_unnamed_addr #0

declare nonnull align 8 dereferenceable(8) %"class.std::basic_ostream"* @_ZNSolsEi(%"class.std::basic_ostream"* nonnull align 8 dereferenceable(8), i32) local_unnamed_addr #0

; Function Attrs: argmemonly mustprogress nofree nosync nounwind willreturn
declare void @llvm.lifetime.end.p0i8(i64 immarg, i8* nocapture) #4

declare nonnull align 8 dereferenceable(8) %"class.std::basic_ostream"* @_ZSt16__ostream_insertIcSt11char_traitsIcEERSt13basic_ostreamIT_T0_ES6_PKS3_l(%"class.std::basic_ostream"* nonnull align 8 dereferenceable(8), i8*, i64) local_unnamed_addr #0

; Function Attrs: sspstrong uwtable
define internal void @_GLOBAL__sub_I_935.cpp() #5 section ".text.startup" {
  tail call void @_ZNSt8ios_base4InitC1Ev(%"class.std::ios_base::Init"* nonnull align 1 dereferenceable(1) @_ZStL8__ioinit)
  %1 = tail call i32 @__cxa_atexit(void (i8*)* bitcast (void (%"class.std::ios_base::Init"*)* @_ZNSt8ios_base4InitD1Ev to void (i8*)*), i8* getelementptr inbounds (%"class.std::ios_base::Init", %"class.std::ios_base::Init"* @_ZStL8__ioinit, i64 0, i32 0), i8* nonnull @__dso_handle) #6
  ret void
}


!llvm.module.flags = !{!0, !1, !2, !3}
!llvm.ident = !{!4}

!0 = !{i32 1, !"wchar_size", i32 4}
!1 = !{i32 7, !"PIC Level", i32 2}
!2 = !{i32 7, !"PIE Level", i32 2}
!3 = !{i32 7, !"uwtable", i32 1}
!4 = !{!"clang version 13.0.0"}
!5 = !{!6, !6, i64 0}
!6 = !{!"int", !7, i64 0}
!7 = !{!"omnipotent char", !8, i64 0}
!8 = !{!"Simple C++ TBAA"}
!9 = distinct !{!9, !10}
!10 = !{!"llvm.loop.mustprogress"}
!11 = distinct !{!11, !10, !12}
!12 = !{!"llvm.loop.isvectorized", i32 1}
!13 = distinct !{!13, !10, !14, !12}
!14 = !{!"llvm.loop.unroll.runtime.disable"}
!15 = distinct !{!15, !10}
!16 = distinct !{!16, !10}
!17 = !{!7, !7, i64 0}
!18 = distinct !{!18, !10}
